; ModuleID = '3/2250.c'
source_filename = "3/2250.c"
target datalayout = "e-m:e-p270:32:32-p271:32:32-p272:64:64-i64:64-f80:128-n8:16:32:64-S128"
target triple = "x86_64-pc-linux-gnu"

@.str = private unnamed_addr constant [5 x i8] c"%d%d\00", align 1
@.str.1 = private unnamed_addr constant [3 x i8] c"%d\00", align 1
@.str.2 = private unnamed_addr constant [3 x i8] c"no\00", align 1
@.str.3 = private unnamed_addr constant [4 x i8] c"yes\00", align 1

; Function Attrs: noinline nounwind uwtable
define dso_local i32 @main() #0 {
  %1 = alloca i32, align 4
  %2 = alloca i32, align 4
  %3 = alloca i32, align 4
  %4 = alloca i32, align 4
  %5 = alloca i32, align 4
  %6 = alloca [1009 x i32], align 16
  %7 = alloca i32, align 4
  %8 = alloca i32, align 4
  store i32 0, i32* %1, align 4
  %9 = call i32 (i8*, ...) @__isoc99_scanf(i8* getelementptr inbounds ([5 x i8], [5 x i8]* @.str, i64 0, i64 0), i32* %2, i32* %3)
  store i32 0, i32* %7, align 4
  store i32 0, i32* %8, align 4
  store i32 1, i32* %4, align 4
  br label %10

10:                                               ; preds = %19, %0
  %11 = load i32, i32* %4, align 4
  %12 = load i32, i32* %2, align 4
  %13 = icmp sle i32 %11, %12
  br i1 %13, label %14, label %22

14:                                               ; preds = %10
  %15 = load i32, i32* %4, align 4
  %16 = sext i32 %15 to i64
  %17 = getelementptr inbounds [1009 x i32], [1009 x i32]* %6, i64 0, i64 %16
  %18 = call i32 (i8*, ...) @__isoc99_scanf(i8* getelementptr inbounds ([3 x i8], [3 x i8]* @.str.1, i64 0, i64 0), i32* %17)
  br label %19

19:                                               ; preds = %14
  %20 = load i32, i32* %4, align 4
  %21 = add nsw i32 %20, 1
  store i32 %21, i32* %4, align 4
  br label %10

22:                                               ; preds = %10
  store i32 1, i32* %4, align 4
  br label %23

23:                                               ; preds = %57, %22
  %24 = load i32, i32* %4, align 4
  %25 = load i32, i32* %2, align 4
  %26 = icmp sle i32 %24, %25
  br i1 %26, label %27, label %60

27:                                               ; preds = %23
  %28 = load i32, i32* %4, align 4
  %29 = add nsw i32 %28, 1
  store i32 %29, i32* %5, align 4
  br label %30

30:                                               ; preds = %53, %27
  %31 = load i32, i32* %5, align 4
  %32 = load i32, i32* %2, align 4
  %33 = icmp sle i32 %31, %32
  br i1 %33, label %34, label %56

34:                                               ; preds = %30
  %35 = load i32, i32* %3, align 4
  %36 = load i32, i32* %4, align 4
  %37 = sext i32 %36 to i64
  %38 = getelementptr inbounds [1009 x i32], [1009 x i32]* %6, i64 0, i64 %37
  %39 = load i32, i32* %38, align 4
  %40 = load i32, i32* %5, align 4
  %41 = sext i32 %40 to i64
  %42 = getelementptr inbounds [1009 x i32], [1009 x i32]* %6, i64 0, i64 %41
  %43 = load i32, i32* %42, align 4
  %44 = add nsw i32 %39, %43
  %45 = icmp eq i32 %35, %44
  br i1 %45, label %46, label %49

46:                                               ; preds = %34
  %47 = load i32, i32* %8, align 4
  %48 = add nsw i32 %47, 1
  store i32 %48, i32* %8, align 4
  br label %52

49:                                               ; preds = %34
  %50 = load i32, i32* %7, align 4
  %51 = add nsw i32 %50, 1
  store i32 %51, i32* %7, align 4
  br label %52

52:                                               ; preds = %49, %46
  br label %53

53:                                               ; preds = %52
  %54 = load i32, i32* %5, align 4
  %55 = add nsw i32 %54, 1
  store i32 %55, i32* %5, align 4
  br label %30

56:                                               ; preds = %30
  br label %57

57:                                               ; preds = %56
  %58 = load i32, i32* %4, align 4
  %59 = add nsw i32 %58, 1
  store i32 %59, i32* %4, align 4
  br label %23

60:                                               ; preds = %23
  %61 = load i32, i32* %7, align 4
  %62 = load i32, i32* %2, align 4
  %63 = load i32, i32* %2, align 4
  %64 = sub nsw i32 %63, 1
  %65 = mul nsw i32 %62, %64
  %66 = sdiv i32 %65, 2
  %67 = icmp eq i32 %61, %66
  br i1 %67, label %68, label %70

68:                                               ; preds = %60
  %69 = call i32 (i8*, ...) @printf(i8* getelementptr inbounds ([3 x i8], [3 x i8]* @.str.2, i64 0, i64 0))
  br label %76

70:                                               ; preds = %60
  %71 = load i32, i32* %8, align 4
  %72 = icmp sge i32 %71, 1
  br i1 %72, label %73, label %75

73:                                               ; preds = %70
  %74 = call i32 (i8*, ...) @printf(i8* getelementptr inbounds ([4 x i8], [4 x i8]* @.str.3, i64 0, i64 0))
  br label %75

75:                                               ; preds = %73, %70
  br label %76

76:                                               ; preds = %75, %68
  %77 = load i32, i32* %1, align 4
  ret i32 %77
}

declare dso_local i32 @__isoc99_scanf(i8*, ...) #1

declare dso_local i32 @printf(i8*, ...) #1


!llvm.module.flags = !{!0}
!llvm.ident = !{!1}

!0 = !{i32 1, !"wchar_size", i32 4}
!1 = !{!"clang version 10.0.0-4ubuntu1 "}
